; Function Attrs: mustprogress uwtable
define ptr @ucol_openAvailableLocales_75(ptr noundef %status) local_unnamed_addr #1 {
entry:
  %0 = load i32, ptr %status, align 4
  %cmp.i = icmp slt i32 %0, 1
  br i1 %cmp.i, label %if.end, label %return

if.end:                                           ; preds = %entry
  %call1 = tail call noundef ptr @_ZN6icu_758Collator19getAvailableLocalesEv()
  %cmp = icmp eq ptr %call1, null
  br i1 %cmp, label %if.then2, label %if.end3

if.then2:                                         ; preds = %if.end
  store i32 7, ptr %status, align 4
  br label %return

if.end3:                                          ; preds = %if.end
  %call4 = tail call ptr @uenum_openFromStringEnumeration_75(ptr noundef nonnull %call1, ptr noundef nonnull %status)
  br label %return

return:                                           ; preds = %entry, %if.end3, %if.then2
  %retval.0 = phi ptr [ null, %if.then2 ], [ %call4, %if.end3 ], [ null, %entry ]
  ret ptr %retval.0
}